target datalayout = "e-m:e-p270:32:32-p271:32:32-p272:64:64-i64:64-i128:128-f80:128-n8:16:32:64-S128"
target triple = "x86_64-unknown-linux-gnu"

%struct.ChardevCommon = type { ptr, i8, i8 }
%struct.ChardevUdp = type { ptr, i8, i8, ptr, ptr }

@.str.10 = private unnamed_addr constant [8 x i8] c"logfile\00", align 1
@.str.11 = private unnamed_addr constant [10 x i8] c"logappend\00", align 1
@.str.25 = private unnamed_addr constant [7 x i8] c"remote\00", align 1
@.str.26 = private unnamed_addr constant [6 x i8] c"local\00", align 1

; Function Attrs: nounwind sspstrong uwtable
define dso_local zeroext i1 @visit_type_ChardevCommon_members(ptr noundef %v, ptr noundef %obj, ptr noundef %errp) #0 {
entry:
  %retval = alloca i1, align 1
  %v.addr = alloca ptr, align 8
  %obj.addr = alloca ptr, align 8
  %errp.addr = alloca ptr, align 8
  %has_logfile = alloca i8, align 1
  store ptr %v, ptr %v.addr, align 8
  store ptr %obj, ptr %obj.addr, align 8
  store ptr %errp, ptr %errp.addr, align 8
  %0 = load ptr, ptr %obj.addr, align 8
  %logfile = getelementptr inbounds %struct.ChardevCommon, ptr %0, i32 0, i32 0
  %1 = load ptr, ptr %logfile, align 8
  %tobool = icmp ne ptr %1, null
  %lnot = xor i1 %tobool, true
  %lnot1 = xor i1 %lnot, true
  %frombool = zext i1 %lnot1 to i8
  store i8 %frombool, ptr %has_logfile, align 1
  %2 = load ptr, ptr %v.addr, align 8
  %call = call zeroext i1 @visit_optional(ptr noundef %2, ptr noundef @.str.10, ptr noundef %has_logfile)
  br i1 %call, label %if.then, label %if.end5

if.then:                                          ; preds = %entry
  %3 = load ptr, ptr %v.addr, align 8
  %4 = load ptr, ptr %obj.addr, align 8
  %logfile2 = getelementptr inbounds %struct.ChardevCommon, ptr %4, i32 0, i32 0
  %5 = load ptr, ptr %errp.addr, align 8
  %call3 = call zeroext i1 @visit_type_str(ptr noundef %3, ptr noundef @.str.10, ptr noundef %logfile2, ptr noundef %5)
  br i1 %call3, label %if.end, label %if.then4

if.then4:                                         ; preds = %if.then
  store i1 false, ptr %retval, align 1
  br label %return

if.end:                                           ; preds = %if.then
  br label %if.end5

if.end5:                                          ; preds = %if.end, %entry
  %6 = load ptr, ptr %v.addr, align 8
  %7 = load ptr, ptr %obj.addr, align 8
  %has_logappend = getelementptr inbounds %struct.ChardevCommon, ptr %7, i32 0, i32 1
  %call6 = call zeroext i1 @visit_optional(ptr noundef %6, ptr noundef @.str.11, ptr noundef %has_logappend)
  br i1 %call6, label %if.then7, label %if.end11

if.then7:                                         ; preds = %if.end5
  %8 = load ptr, ptr %v.addr, align 8
  %9 = load ptr, ptr %obj.addr, align 8
  %logappend = getelementptr inbounds %struct.ChardevCommon, ptr %9, i32 0, i32 2
  %10 = load ptr, ptr %errp.addr, align 8
  %call8 = call zeroext i1 @visit_type_bool(ptr noundef %8, ptr noundef @.str.11, ptr noundef %logappend, ptr noundef %10)
  br i1 %call8, label %if.end10, label %if.then9

if.then9:                                         ; preds = %if.then7
  store i1 false, ptr %retval, align 1
  br label %return

if.end10:                                         ; preds = %if.then7
  br label %if.end11

if.end11:                                         ; preds = %if.end10, %if.end5
  store i1 true, ptr %retval, align 1
  br label %return

return:                                           ; preds = %if.end11, %if.then9, %if.then4
  %11 = load i1, ptr %retval, align 1
  ret i1 %11
}

; Function Attrs: nounwind sspstrong uwtable
define dso_local zeroext i1 @visit_type_ChardevUdp_members(ptr noundef %v, ptr noundef %obj, ptr noundef %errp) #0 {
entry:
  %retval = alloca i1, align 1
  %v.addr = alloca ptr, align 8
  %obj.addr = alloca ptr, align 8
  %errp.addr = alloca ptr, align 8
  %has_local = alloca i8, align 1
  store ptr %v, ptr %v.addr, align 8
  store ptr %obj, ptr %obj.addr, align 8
  store ptr %errp, ptr %errp.addr, align 8
  %0 = load ptr, ptr %obj.addr, align 8
  %local = getelementptr inbounds %struct.ChardevUdp, ptr %0, i32 0, i32 4
  %1 = load ptr, ptr %local, align 8
  %tobool = icmp ne ptr %1, null
  %lnot = xor i1 %tobool, true
  %lnot1 = xor i1 %lnot, true
  %frombool = zext i1 %lnot1 to i8
  store i8 %frombool, ptr %has_local, align 1
  %2 = load ptr, ptr %v.addr, align 8
  %3 = load ptr, ptr %obj.addr, align 8
  %4 = load ptr, ptr %errp.addr, align 8
  %call = call zeroext i1 @visit_type_ChardevCommon_members(ptr noundef %2, ptr noundef %3, ptr noundef %4)
  br i1 %call, label %if.end, label %if.then

if.then:                                          ; preds = %entry
  store i1 false, ptr %retval, align 1
  br label %return

if.end:                                           ; preds = %entry
  %5 = load ptr, ptr %v.addr, align 8
  %6 = load ptr, ptr %obj.addr, align 8
  %remote = getelementptr inbounds %struct.ChardevUdp, ptr %6, i32 0, i32 3
  %7 = load ptr, ptr %errp.addr, align 8
  %call2 = call zeroext i1 @visit_type_SocketAddressLegacy(ptr noundef %5, ptr noundef @.str.25, ptr noundef %remote, ptr noundef %7)
  br i1 %call2, label %if.end4, label %if.then3

if.then3:                                         ; preds = %if.end
  store i1 false, ptr %retval, align 1
  br label %return

if.end4:                                          ; preds = %if.end
  %8 = load ptr, ptr %v.addr, align 8
  %call5 = call zeroext i1 @visit_optional(ptr noundef %8, ptr noundef @.str.26, ptr noundef %has_local)
  br i1 %call5, label %if.then6, label %if.end11

if.then6:                                         ; preds = %if.end4
  %9 = load ptr, ptr %v.addr, align 8
  %10 = load ptr, ptr %obj.addr, align 8
  %local7 = getelementptr inbounds %struct.ChardevUdp, ptr %10, i32 0, i32 4
  %11 = load ptr, ptr %errp.addr, align 8
  %call8 = call zeroext i1 @visit_type_SocketAddressLegacy(ptr noundef %9, ptr noundef @.str.26, ptr noundef %local7, ptr noundef %11)
  br i1 %call8, label %if.end10, label %if.then9

if.then9:                                         ; preds = %if.then6
  store i1 false, ptr %retval, align 1
  br label %return

if.end10:                                         ; preds = %if.then6
  br label %if.end11

if.end11:                                         ; preds = %if.end10, %if.end4
  store i1 true, ptr %retval, align 1
  br label %return

return:                                           ; preds = %if.end11, %if.then9, %if.then3, %if.then
  %12 = load i1, ptr %retval, align 1
  ret i1 %12
}